00001  0000             ; 10 SYS4096
00002  0001             *=$0801
00003  0801  0B 08 0A              BYTE    $0B, $08, $0A, $00, $9E, $34, $30, $39, $36, $00, $00, $00
00004  080D             
00005  080D             TRUCKTYPE$ = $0810
00006  080D             TRUCKCOL$  = $0811
00007  080D             TRUCKSIZE$ = $0812
00008  080D             TRUCKOVEN$ = $0813
00009  080D             
00010  080D             FRAME_COUNT = 3
00011  080D             FRAME_DELAY = 7
00012  080D             SPRITE_INITIAL_DATA_POINTER = 128
00013  080D             
00014  080D             ; BIG UPS TO GRAY DEFENDER
00015  080D             ; SPRITE ANIMATION FROM JEFF-1AMSTUDIOS
00016  080D             
00017  080D             
00018  080D             ;MACROS
00019  080D             
00020  080D             DEFM       FILLSCREEN      ;MACRO FOR FILLING SCREEN (COLOR OR CHARACTERS)
00021  080D             
00022  080D                        LDA     /1      ;LOWBITE FOR MEMEORY START LOCATION
00023  080D                        STA     $FB
00024  080D                        LDA     /2      ;HIGHBITE FOR MEMEORY START LOCATION
00025  080D                        STA     $FC
00026  080D                        LDX     #00
00027  080D                        LDA     /3,X    ;LOWBITE FOR READ LOCATION
00028  080D                        STA     $FD
00029  080D                        LDA     /4,X    ;HIGHT BITE FOR READ LOCATION
00030  080D                        STA     $FE
00031  080D                        LDX     #4
00032  080D                        
00033  080D                        LDY     #$00
00034  080D                        LDA     ($FD),Y
00035  080D                        STA     ($FB),Y
00036  080D                        DEY
00037  080D                        BNE     *-5
00038  080D                        INC     $FC
00039  080D                        INC     $FE
00040  080D                        DEX
00041  080D                        BNE     *-14
00042  080D             
00043  080D             
00044  080D             
00045  080D             *=$1000
00046  1000                        
00047  1000  A9 03                 LDA     #3
00048  1002  8D 11 08              STA     TRUCKCOL$
00049  1005  A9 00                 LDA     #0              ;SET SCREEN BLACK
00050  1007  8D 20 D0              STA     $D020
00051  100A  8D 21 D0              STA     $D021
00052  100D             
00053  100D             
00054  100D             
00055  100D  A9 00                 LDA     #$00
00056  100F  85 FB                 STA     $FB
00057  1011  A9 04                 LDA     #$04
00058  1013  85 FC                 STA     $FC
00059  1015  A2 00                 LDX     #00
00060  1017  BD C0 20              LDA     MAPL,X
00061  101A  85 FD                 STA     $FD
00062  101C  BD C1 20              LDA     MAPH,X
00063  101F  85 FE                 STA     $FE
00064  1021  A2 04                 LDX     #4
00065  1023                        
00066  1023  A0 00                 LDY     #$00
00067  1025  B1 FD                 LDA     ($FD),Y
00068  1027  91 FB                 STA     ($FB),Y
00069  1029  88                    DEY
00070  102A  D0 F9                 BNE     *-5
00071  102C  E6 FC                 INC     $FC
00072  102E  E6 FE                 INC     $FE
00073  1030  CA                    DEX
00074  1031  D0 F0                 BNE     *-14
00075  1033             
00076  1033             
00077  1033             
00078  1033  A9 00                 LDA     #$00
00079  1035  85 FB                 STA     $FB
00080  1037  A9 D8                 LDA     #$D8
00081  1039  85 FC                 STA     $FC
00082  103B  A2 00                 LDX     #00
00083  103D  BD AA 24              LDA     COLL,X
00084  1040  85 FD                 STA     $FD
00085  1042  BD AB 24              LDA     COLH,X
00086  1045  85 FE                 STA     $FE
00087  1047  A2 04                 LDX     #4
00088  1049                        
00089  1049  A0 00                 LDY     #$00
00090  104B  B1 FD                 LDA     ($FD),Y
00091  104D  91 FB                 STA     ($FB),Y
00092  104F  88                    DEY
00093  1050  D0 F9                 BNE     *-5
00094  1052  E6 FC                 INC     $FC
00095  1054  E6 FE                 INC     $FE
00096  1056  CA                    DEX
00097  1057  D0 F0                 BNE     *-14
00098  1059             
00099  1059             
00100  1059  A9 01                 LDA     #%00000001
00101  105B  8D 15 D0              STA     $D015
00102  105E  8D 1C D0              STA     $D01C
00103  1061  AD 11 08              LDA     TRUCKCOL$
00104  1064  8D 27 D0              STA     $D027
00105  1067  A9 80                 LDA     #$80
00106  1069  8D F8 07              STA     $07F8
00107  106C  A9 00                 LDA     #0
00108  106E  8D 00 D0              STA     $D000
00109  1071  A9 EB                 LDA     #235
00110  1073  8D 01 D0              STA     $D001
00111  1076  A9 01                 LDA     #1
00112  1078  8D 25 D0              STA     $D025
00113  107B  A9 0C                 LDA     #12
00114  107D  8D 26 D0              STA     $D026
00115  1080                        
00116  1080  A2 00      LOOP       LDX     #00
00117  1082  AD 12 D0              LDA     $D012
00118  1085  C9 FF                 CMP     #$FF
00119  1087  D0 F7                 BNE     LOOP
00120  1089  A0 33                 LDY     #$33
00121  108B  A9 7F      DELAY      LDA     #$7F  ;%01111111  THANKS FOR BUZBARD ON LEMON64   THIS PART CHECKS IF SPACE IS PRESSED NEED BETTER WAY TO JUST CHECK WHAT KEY WAS PRESSED FOR MORE KEYS
00122  108D  8D 00 DC              STA     $DC00
00123  1090  AD 01 DC              LDA     $DC01
00124  1093  29 10                 AND     #$10  ;MASK %00010000
00125  1095  D0 03                 BNE     STAY
00126  1097  4C F6 10              JMP     GO
00127  109A  AD 12 D0   STAY       LDA     $D012
00128  109D  C9 FF                 CMP     #$FF
00129  109F  D0 EA                 BNE     DELAY
00130  10A1  AD 10 D0              LDA     $D010           ;FROM HERE----
00131  10A4  C9 01                 CMP     #%0000001
00132  10A6  90 1D                 BCC     TOOFAR          ;THIS PART CHECKS IF IT'S OVER 255 ALREADY
00133  10A8  AD 00 D0              LDA     $D000
00134  10AB  C9 64                 CMP     #100
00135  10AD  90 2B                 BCC     LEFT
00136  10AF  EE 00 04              INC     $0400           ;DEBUG FOR X-ANIMATION
00137  10B2  EE 00 D8              INC     $D800
00138  10B5  A9 00                 LDA     #00
00139  10B7  8D 00 D0              STA     $D000
00140  10BA  A9 01                 LDA     #%0000001
00141  10BC  4D 10 D0              EOR     $D010
00142  10BF  8D 10 D0              STA     $D010
00143  10C2  4C DA 10              JMP     LEFT
00144  10C5  AD 00 D0   TOOFAR     LDA     $D000
00145  10C8  C9 FF                 CMP     #255
00146  10CA  90 0E                 BCC     LEFT
00147  10CC  EE 00 04              INC     $0400
00148  10CF  EE 00 D8              INC     $D800
00149  10D2  A9 01                 LDA     #%0000001
00150  10D4  4D 10 D0              EOR     $D010
00151  10D7  8D 10 D0              STA     $D010
00152  10DA  EE 00 D0   LEFT       INC     $D000           ;TO HERE IS JUST CODE THAT LOOPS THE SPRITE LEFT TO RIGHT ON THE SCREEN
00153  10DD  20 02 11              JSR     ON_SCREEN_REFRESH   ;ANIMATE SPRITE
00154  10E0  88                    DEY
00155  10E1  D0 A8                 BNE     DELAY
00156  10E3  A9 01                 LDA     #01     ;ANIMATE WAVE
00157  10E5  4D B3 D8              EOR     55475
00158  10E8  8D B3 D8              STA     55475
00159  10EB  A9 01                 LDA     #01
00160  10ED  4D B4 D8              EOR     55476
00161  10F0  8D B4 D8              STA     55476
00162  10F3  4C 80 10              JMP     LOOP
00163  10F6  CE 11 08   GO         DEC     TRUCKCOL$
00164  10F9  AD 11 08              LDA     TRUCKCOL$
00165  10FC  8D 27 D0              STA     $D027
00166  10FF  4C 80 10              JMP     LOOP
00167  1102             
00168  1102             ON_SCREEN_REFRESH 
00169  1102  CE 21 11              DEC FRAME_DELAYER                       ; DELAY COUNTDOWN
00170  1105  D0 18                 BNE SKIP
00171  1107  A9 07                 LDA #FRAME_DELAY
00172  1109  8D 21 11              STA FRAME_DELAYER
00173  110C  CE 20 11              DEC FRAME_COUNTER                      ;  FRAME_COUNTER VARIABLE -= 1
00174  110F  D0 0B                 BNE INCREMENT_SPRITE_POINTER           ; IF FRAME_COUNTER > 0, GOTO .INCREMENT_SPRITE_POINTER...
00175  1111  A9 80                 LDA #SPRITE_INITIAL_DATA_POINTER        ; ... OTHERWISE, WE SHOULD RESET TO THE START OF THE ANIMATION
00176  1113  8D F8 07              STA $07F8                               ; RESET THE SPRITE POINTER TO START OF SPRITE DATA
00177  1116  A2 03                 LDX #FRAME_COUNT
00178  1118  8E 20 11              STX FRAME_COUNTER                      ; RESET FRAME_COUNTER TO THE NBR OF SPRITE FRAMES AGAIN
00179  111B  60                    RTS                                     ; RETURN
00180  111C             INCREMENT_SPRITE_POINTER 
00181  111C  EE F8 07              INC $07F8                              ; SPRITE POINTER += 1 (MOVES TO THE NEXT FRAME)
00182  111F             SKIP
00183  111F  60                    RTS
00184  1120             
00185  1120  03         FRAME_COUNTER BYTE FRAME_COUNT
00186  1121  07         FRAME_DELAYER BYTE FRAME_DELAY
00187  1122             
00188  1122             
00189  1122             *=$2000
00190  2000             ; TRUCK RIGHT
00191  2000  AA AA 00              BYTE 170,170,0
00192  2003  AA AA A0              BYTE 170,170,160
00193  2006  AF FE 90              BYTE 175,254,144
00194  2009  BF FF 90              BYTE 191,255,144
00195  200C  BF FF 90              BYTE 191,255,144
00196  200F  BF FF A9              BYTE 191,255,169
00197  2012  BF FF AA              BYTE 191,255,170
00198  2015  AA AA AA              BYTE 170,170,170
00199  2018  55 A9 56              BYTE 85,169,86
00200  201B  41 55 05              BYTE 65,85,5
00201  201E  3C 54 F0              BYTE 60,84,240
00202  2021  3C 00 F0              BYTE 60,0,240
00203  2024  3C 00 F0              BYTE 60,0,240
00204  2027  00 00 00              BYTE 0,0,0
00205  202A  00 00 00              BYTE 0,0,0
00206  202D  00 00 00              BYTE 0,0,0
00207  2030  00 00 00              BYTE 0,0,0
00208  2033  00 00 00              BYTE 0,0,0
00209  2036  00 00 00              BYTE 0,0,0
00210  2039  00 00 00              BYTE 0,0,0
00211  203C  00 00 00              BYTE 0,0,0
00212  203F  00                    BYTE 0
00213  2040             
00214  2040             ; TRUCK RIGHT
00215  2040  00 00 00              BYTE 0,0,0
00216  2043  AA AA 00              BYTE 170,170,0
00217  2046  AA AA A0              BYTE 170,170,160
00218  2049  AF FE 90              BYTE 175,254,144
00219  204C  BF FF 90              BYTE 191,255,144
00220  204F  BF FF 90              BYTE 191,255,144
00221  2052  BF FF A9              BYTE 191,255,169
00222  2055  BF FF AA              BYTE 191,255,170
00223  2058  AA AA AA              BYTE 170,170,170
00224  205B  55 A9 56              BYTE 85,169,86
00225  205E  7D 55 F5              BYTE 125,85,245
00226  2061  3C 54 F0              BYTE 60,84,240
00227  2064  3C 00 F0              BYTE 60,0,240
00228  2067  00 00 00              BYTE 0,0,0
00229  206A  00 00 00              BYTE 0,0,0
00230  206D  00 00 00              BYTE 0,0,0
00231  2070  00 00 00              BYTE 0,0,0
00232  2073  00 00 00              BYTE 0,0,0
00233  2076  00 00 00              BYTE 0,0,0
00234  2079  00 00 00              BYTE 0,0,0
00235  207C  00 00 00              BYTE 0,0,0
00236  207F  00                    BYTE 0
00237  2080             
00238  2080             ; TRUCK RIGHT
00239  2080  AA AA 00              BYTE 170,170,0
00240  2083  AA AA A0              BYTE 170,170,160
00241  2086  AF FE 90              BYTE 175,254,144
00242  2089  BF FF 90              BYTE 191,255,144
00243  208C  BF FF 90              BYTE 191,255,144
00244  208F  BF FF A9              BYTE 191,255,169
00245  2092  BF FF AA              BYTE 191,255,170
00246  2095  AA AA AA              BYTE 170,170,170
00247  2098  55 A9 56              BYTE 85,169,86
00248  209B  7D 55 F5              BYTE 125,85,245
00249  209E  3C 54 F0              BYTE 60,84,240
00250  20A1  3C 00 F0              BYTE 60,0,240
00251  20A4  00 00 00              BYTE 0,0,0
00252  20A7  00 00 00              BYTE 0,0,0
00253  20AA  00 00 00              BYTE 0,0,0
00254  20AD  00 00 00              BYTE 0,0,0
00255  20B0  00 00 00              BYTE 0,0,0
00256  20B3  00 00 00              BYTE 0,0,0
00257  20B6  00 00 00              BYTE 0,0,0
00258  20B9  00 00 00              BYTE 0,0,0
00259  20BC  00 00 00              BYTE 0,0,0
00260  20BF  00                    BYTE 0
00261  20C0             
00262  20C0  C2         MAPL       BYTE    <MAP
00263  20C1  20         MAPH       BYTE    >MAP
00264  20C2             
00265  20C2  20 20 20   MAP        BYTE    $20,$20,$20,$20,$20,$20,$20,$20,$20,$20,$20,$20,$20,$20,$20,$20,$20,$20,$20,$20,$20,$20,$20,$20,$20,$20,$20,$20,$20,$20,$20,$20,$20,$20,$20,$20,$20,$20,$20,$20
00266  20EA  20 20 20              BYTE    $20,$20,$20,$20,$20,$20,$20,$20,$20,$20,$20,$20,$20,$20,$20,$20,$20,$20,$20,$20,$20,$20,$20,$20,$20,$20,$20,$20,$20,$20,$20,$20,$20,$20,$20,$20,$20,$20,$20,$20
00267  2112  20 20 20              BYTE    $20,$20,$20,$20,$20,$20,$20,$20,$20,$20,$20,$20,$20,$20,$20,$20,$20,$20,$20,$20,$20,$20,$20,$20,$20,$20,$20,$20,$20,$20,$20,$20,$20,$20,$20,$20,$20,$20,$20,$20
00268  213A  20 20 20              BYTE    $20,$20,$20,$20,$20,$20,$20,$E0,$E0,$E0,$E0,$E0,$E0,$E0,$E0,$E0,$E0,$E0,$E0,$E0,$E0,$E0,$E0,$E0,$20,$20,$20,$20,$20,$20,$20,$20,$20,$20,$20,$20,$20,$20,$20,$20
00269  2162  20 20 20              BYTE    $20,$20,$20,$20,$20,$20,$20,$E0,$E0,$E0,$E0,$E0,$E0,$E0,$20,$20,$E0,$E0,$20,$E0,$E0,$20,$20,$E0,$20,$20,$20,$20,$20,$20,$20,$20,$20,$20,$20,$20,$20,$20,$20,$20
00270  218A  20 20 20              BYTE    $20,$20,$20,$20,$20,$20,$20,$E0,$E0,$E0,$E0,$E0,$E0,$20,$20,$20,$E0,$E0,$20,$E0,$20,$20,$E0,$E0,$20,$20,$20,$20,$20,$20,$20,$20,$20,$20,$20,$20,$20,$20,$20,$20
00271  21B2  20 20 20              BYTE    $20,$20,$20,$20,$20,$20,$20,$E0,$E0,$E0,$E0,$E0,$20,$20,$20,$20,$20,$E0,$E0,$20,$20,$E0,$E0,$E0,$20,$20,$20,$20,$20,$20,$20,$20,$20,$20,$20,$20,$20,$20,$20,$20
00272  21DA  20 20 20              BYTE    $20,$20,$20,$20,$20,$20,$20,$E0,$E0,$E0,$E0,$E0,$E0,$E0,$E0,$E0,$E0,$E0,$E0,$E0,$E0,$E0,$20,$E0,$20,$20,$20,$20,$20,$20,$20,$20,$20,$20,$20,$20,$20,$20,$20,$20
00273  2202  20 20 20              BYTE    $20,$20,$20,$20,$20,$20,$20,$E0,$E0,$E0,$E0,$E0,$E0,$E0,$E0,$E0,$E0,$E0,$E0,$E0,$E0,$E0,$20,$E0,$20,$20,$20,$20,$20,$20,$20,$20,$20,$20,$20,$20,$20,$20,$20,$20
00274  222A  20 20 20              BYTE    $20,$20,$20,$20,$20,$20,$20,$E0,$E0,$E0,$E0,$E0,$20,$20,$E0,$E0,$E0,$20,$20,$E0,$E0,$E0,$E0,$20,$20,$20,$20,$20,$20,$20,$20,$20,$20,$20,$20,$20,$20,$20,$20,$20
00275  2252  20 20 20              BYTE    $20,$20,$20,$20,$20,$20,$20,$20,$20,$20,$20,$E0,$20,$20,$E0,$20,$E0,$20,$20,$E0,$20,$20,$20,$20,$20,$20,$20,$20,$20,$20,$20,$20,$20,$20,$E0,$20,$20,$20,$20,$20
00276  227A  20 20 20              BYTE    $20,$20,$20,$20,$20,$20,$20,$20,$20,$20,$20,$20,$E0,$E0,$20,$20,$20,$E0,$E0,$20,$20,$E0,$E0,$E0,$20,$20,$20,$20,$20,$20,$20,$20,$20,$20,$E0,$20,$20,$20,$20,$20
00277  22A2  20 20 20              BYTE    $20,$20,$20,$20,$20,$20,$20,$20,$20,$20,$20,$20,$20,$20,$20,$20,$20,$20,$20,$20,$20,$20,$E0,$20,$20,$E0,$20,$E0,$20,$E0,$20,$E0,$E0,$20,$E0,$20,$E0,$20,$20,$20
00278  22CA  20 20 20              BYTE    $20,$20,$20,$20,$20,$20,$20,$20,$20,$20,$20,$20,$20,$20,$20,$20,$20,$20,$20,$20,$20,$20,$E0,$20,$E0,$20,$20,$E0,$20,$E0,$20,$E0,$20,$20,$E0,$E0,$20,$20,$20,$20
00279  22F2  20 20 20              BYTE    $20,$20,$20,$20,$20,$20,$20,$20,$20,$20,$20,$20,$20,$20,$20,$20,$20,$20,$20,$20,$20,$20,$E0,$20,$E0,$20,$20,$20,$E0,$E0,$20,$E0,$E0,$20,$E0,$20,$E0,$20,$20,$20
00280  231A  20 20 20              BYTE    $20,$20,$20,$20,$20,$20,$20,$E0,$E0,$E0,$20,$20,$20,$20,$20,$20,$20,$20,$20,$20,$20,$20,$20,$20,$20,$20,$20,$20,$20,$20,$20,$20,$20,$20,$20,$20,$20,$20,$20,$20
00281  2342  20 20 20              BYTE    $20,$20,$20,$20,$20,$20,$20,$E0,$20,$20,$20,$E0,$E0,$20,$20,$E0,$E0,$20,$E0,$E0,$20,$20,$E0,$E0,$20,$20,$E0,$20,$E0,$20,$E0,$20,$20,$20,$20,$20,$20,$20,$20,$20
00282  236A  20 20 20              BYTE    $20,$20,$20,$20,$20,$20,$20,$E0,$E0,$20,$E0,$20,$20,$20,$E0,$20,$20,$20,$E0,$20,$E0,$20,$E0,$20,$E0,$20,$E0,$20,$E0,$20,$E0,$20,$20,$20,$20,$20,$20,$20,$20,$20
00283  2392  20 20 20              BYTE    $20,$20,$20,$20,$20,$20,$20,$E0,$20,$20,$E0,$20,$20,$20,$E0,$E0,$20,$20,$E0,$20,$E0,$20,$E0,$20,$E0,$20,$20,$E0,$20,$20,$E0,$20,$20,$20,$20,$20,$20,$20,$20,$20
00284  23BA  20 20 20              BYTE    $20,$20,$20,$20,$20,$20,$20,$E0,$20,$20,$E0,$20,$20,$20,$E0,$20,$20,$20,$E0,$20,$E0,$20,$E0,$20,$E0,$20,$20,$E0,$20,$20,$20,$20,$20,$20,$20,$20,$20,$20,$20,$20
00285  23E2  20 20 20              BYTE    $20,$20,$20,$20,$20,$20,$20,$E0,$20,$20,$E0,$20,$20,$20,$20,$E0,$E0,$20,$E0,$E0,$20,$20,$E0,$E0,$20,$20,$20,$E0,$20,$20,$E0,$20,$20,$20,$20,$20,$20,$20,$20,$20
00286  240A  20 20 20              BYTE    $20,$20,$20,$20,$20,$20,$20,$20,$20,$20,$20,$20,$20,$20,$20,$20,$20,$20,$20,$20,$20,$20,$20,$20,$20,$20,$20,$20,$20,$20,$20,$20,$20,$20,$20,$20,$20,$20,$20,$20
00287  2432  20 20 20              BYTE    $20,$20,$20,$20,$20,$20,$20,$06,$31,$20,$2D,$20,$13,$14,$01,$12,$14,$20,$20,$20,$06,$33,$20,$2D,$20,$0F,$10,$14,$09,$0F,$0E,$13,$20,$20,$20,$20,$20,$20,$20,$20
00288  245A  20 20 20              BYTE    $20,$20,$20,$20,$20,$20,$20,$20,$20,$20,$20,$20,$20,$20,$20,$20,$20,$20,$20,$20,$20,$20,$20,$20,$20,$20,$20,$20,$20,$20,$20,$20,$20,$20,$20,$20,$20,$20,$20,$20
00289  2482  20 20 20              BYTE    $20,$20,$20,$20,$20,$20,$20,$20,$20,$20,$20,$20,$20,$20,$20,$20,$20,$20,$20,$20,$20,$20,$20,$20,$20,$20,$20,$20,$20,$20,$20,$20,$20,$20,$20,$20,$20,$20,$20,$20
00290  24AA             
00291  24AA             
00292  24AA             
00293  24AA             
00294  24AA  AC         COLL       BYTE    <COL
00295  24AB  24         COLH       BYTE    >COL
00296  24AC             
00297  24AC  00 00 00   COL        BYTE    $00,$00,$00,$00,$00,$00,$00,$00,$00,$00,$00,$00,$00,$00,$00,$00,$00,$00,$00,$00,$00,$00,$00,$00,$00,$00,$00,$00,$00,$00,$00,$00,$00,$00,$00,$00,$00,$00,$00,$00
00298  24D4  00 00 00              BYTE    $00,$00,$00,$00,$00,$00,$00,$00,$00,$00,$00,$00,$00,$00,$00,$00,$00,$00,$00,$00,$00,$00,$00,$00,$00,$00,$00,$00,$00,$00,$00,$00,$00,$00,$00,$00,$00,$00,$00,$00
00299  24FC  00 00 00              BYTE    $00,$00,$00,$00,$00,$00,$00,$01,$01,$01,$01,$01,$00,$00,$00,$00,$00,$00,$00,$00,$00,$00,$00,$00,$00,$00,$00,$00,$00,$00,$00,$00,$00,$00,$01,$01,$00,$00,$00,$00
00300  2524  00 00 00              BYTE    $00,$00,$00,$00,$00,$00,$00,$01,$01,$01,$01,$01,$0A,$0A,$02,$02,$02,$02,$02,$02,$02,$02,$02,$01,$00,$00,$00,$00,$00,$00,$00,$00,$00,$01,$00,$00,$01,$00,$00,$00
00301  254C  00 00 00              BYTE    $00,$00,$00,$00,$00,$00,$00,$01,$03,$03,$03,$03,$03,$02,$00,$00,$01,$01,$00,$01,$00,$00,$00,$01,$00,$00,$00,$00,$00,$00,$00,$00,$01,$00,$00,$00,$01,$00,$00,$00
00302  2574  00 00 00              BYTE    $00,$00,$00,$00,$00,$00,$00,$01,$03,$03,$03,$03,$02,$01,$01,$01,$01,$01,$00,$01,$00,$00,$02,$01,$00,$00,$00,$00,$01,$01,$01,$01,$00,$00,$00,$00,$00,$00,$00,$00
00303  259C  00 00 00              BYTE    $00,$00,$00,$00,$00,$00,$00,$01,$01,$01,$01,$02,$02,$01,$01,$01,$00,$01,$01,$00,$02,$02,$01,$01,$01,$00,$00,$01,$01,$00,$00,$00,$00,$00,$00,$00,$00,$00,$00,$00
00304  25C4  00 00 00              BYTE    $00,$00,$00,$00,$00,$00,$00,$01,$0A,$0A,$02,$02,$02,$02,$02,$02,$02,$02,$02,$02,$02,$01,$00,$01,$00,$00,$01,$01,$00,$00,$00,$00,$00,$00,$00,$00,$00,$00,$00,$00
00305  25EC  00 00 00              BYTE    $00,$00,$00,$00,$00,$00,$00,$01,$0A,$0A,$02,$02,$01,$01,$02,$02,$02,$01,$01,$02,$02,$01,$00,$01,$00,$01,$00,$00,$00,$00,$00,$00,$00,$00,$00,$00,$00,$00,$00,$00
00306  2614  00 00 00              BYTE    $00,$00,$00,$00,$00,$00,$00,$01,$0A,$0A,$02,$01,$00,$00,$01,$02,$01,$01,$00,$01,$02,$01,$01,$01,$01,$01,$00,$00,$00,$00,$00,$00,$00,$00,$00,$00,$00,$00,$00,$00
00307  263C  00 00 00              BYTE    $00,$00,$00,$00,$00,$00,$00,$00,$00,$00,$00,$01,$00,$00,$01,$00,$01,$01,$00,$01,$00,$00,$00,$00,$00,$00,$00,$00,$00,$00,$00,$00,$00,$00,$01,$00,$00,$00,$00,$00
00308  2664  00 00 00              BYTE    $00,$00,$00,$00,$00,$00,$00,$00,$00,$00,$00,$00,$01,$01,$00,$00,$00,$01,$01,$00,$00,$01,$01,$01,$00,$00,$00,$00,$00,$00,$00,$00,$00,$00,$01,$00,$00,$00,$00,$00
00309  268C  00 00 00              BYTE    $00,$00,$00,$00,$00,$00,$00,$00,$00,$00,$00,$00,$00,$00,$00,$00,$00,$00,$00,$00,$00,$00,$01,$00,$00,$01,$00,$01,$00,$01,$00,$01,$01,$01,$01,$00,$01,$00,$00,$00
00310  26B4  00 00 00              BYTE    $00,$00,$00,$00,$00,$00,$00,$00,$00,$00,$00,$00,$00,$00,$00,$00,$00,$00,$00,$00,$00,$00,$01,$00,$01,$00,$00,$01,$01,$01,$00,$01,$01,$00,$01,$01,$00,$00,$00,$00
00311  26DC  00 00 00              BYTE    $00,$00,$00,$00,$00,$00,$00,$01,$01,$01,$00,$00,$00,$00,$00,$00,$00,$00,$00,$00,$00,$00,$01,$00,$01,$00,$00,$01,$01,$01,$00,$01,$01,$00,$01,$00,$01,$00,$00,$00
00312  2704  00 00 00              BYTE    $00,$00,$00,$00,$00,$00,$00,$01,$01,$01,$00,$01,$01,$00,$01,$01,$01,$00,$01,$01,$00,$00,$00,$00,$00,$00,$00,$00,$00,$00,$00,$00,$00,$00,$00,$00,$00,$00,$00,$00
00313  272C  00 00 00              BYTE    $00,$00,$00,$00,$00,$00,$00,$01,$01,$01,$01,$01,$01,$01,$01,$01,$01,$00,$01,$01,$01,$00,$01,$01,$00,$00,$01,$00,$01,$00,$01,$00,$00,$00,$00,$00,$00,$00,$00,$00
00314  2754  00 00 00              BYTE    $00,$00,$00,$00,$00,$00,$00,$01,$01,$00,$01,$01,$00,$01,$01,$01,$00,$00,$01,$00,$01,$00,$01,$00,$01,$00,$01,$01,$01,$00,$01,$00,$00,$00,$00,$00,$00,$00,$00,$00
00315  277C  00 00 00              BYTE    $00,$00,$00,$00,$00,$00,$00,$01,$01,$00,$01,$00,$00,$01,$01,$01,$00,$01,$01,$00,$01,$00,$01,$00,$01,$00,$00,$01,$01,$00,$01,$00,$00,$00,$00,$00,$00,$00,$00,$00
00316  27A4  00 00 00              BYTE    $00,$00,$00,$00,$00,$00,$00,$01,$00,$00,$01,$00,$00,$01,$01,$01,$01,$01,$01,$01,$01,$00,$01,$00,$01,$00,$00,$01,$01,$00,$01,$00,$00,$00,$00,$00,$00,$00,$00,$00
00317  27CC  00 00 00              BYTE    $00,$00,$00,$00,$00,$00,$00,$01,$00,$00,$01,$00,$00,$01,$01,$01,$01,$00,$01,$01,$00,$00,$01,$01,$00,$00,$00,$01,$01,$00,$01,$00,$00,$00,$00,$00,$00,$00,$00,$00
00318  27F4  00 00 00              BYTE    $00,$00,$00,$00,$00,$00,$00,$00,$00,$00,$00,$00,$00,$00,$00,$00,$00,$00,$00,$00,$00,$00,$01,$00,$00,$00,$00,$00,$00,$00,$00,$00,$00,$00,$00,$00,$00,$00,$00,$00
00319  281C  00 00 00              BYTE    $00,$00,$00,$00,$00,$00,$00,$01,$01,$01,$01,$01,$01,$01,$01,$01,$01,$00,$00,$00,$01,$01,$01,$01,$01,$01,$01,$01,$01,$01,$01,$01,$00,$00,$00,$00,$00,$00,$00,$00
00320  2844  00 00 00              BYTE    $00,$00,$00,$00,$00,$00,$00,$00,$00,$00,$00,$00,$00,$00,$00,$00,$00,$00,$00,$00,$00,$00,$00,$00,$00,$00,$00,$00,$00,$00,$00,$00,$00,$00,$00,$00,$00,$00,$00,$00
00321  286C  00 00 00              BYTE    $00,$00,$00,$00,$00,$00,$00,$00,$00,$00,$00,$00,$00,$00,$00,$00,$00,$00,$00,$00,$00,$00,$00,$00,$00,$00,$00,$00,$00,$00,$00,$00,$00,$00,$00,$00,$00,$00,$00,$00
00322  2894             

******* 17 Label(s) *******
COL = $24AC 
COLH = $24AB 
COLL = $24AA 
delay = $108B 
frame_counter = $1120 
frame_delayer = $1121 
go = $10F6 
increment_sprite_pointer = $111C 
left = $10DA 
loop = $1080 
MAP = $20C2 
MAPH = $20C1 
MAPL = $20C0 
on_screen_refresh = $1102 
skip = $111F 
stay = $109A 
toofar = $10C5 

******* 2 Unused label(s) *******
COL
MAP

******* 8 Variable(s) *******
FRAME_COUNT  = $0003
FRAME_DELAY  = $0007
SPRITE_INITIAL_DATA_POINTER  = $0080
tgt_c64  = $0001
TruckCol$  = $0811
TruckOven$  = $0813
TruckSize$  = $0812
TruckType$  = $0810
******* 4 Unused variables(s) *******
tgt_c64
TruckOven$
TruckSize$
TruckType$

